; Function Attrs: nounwind uwtable
define internal range(i32 0, 23) i32 @thread_tcache_ncached_max_read_sizeclass_ctl(ptr noundef %0, ptr readnone captures(none) %1, i64 %2, ptr noundef writeonly captures(address_is_null) %3, ptr noundef captures(address_is_null) %4, ptr noundef readonly captures(address_is_null) %5, i64 noundef %6) #0 {
  %8 = alloca i16, align 2
  %9 = alloca i64, align 8
  %10 = icmp ne ptr %5, null
  %.not = icmp eq i64 %6, 8
  %or.cond27 = and i1 %10, %.not
  br i1 %or.cond27, label %11, label %23

11:                                               ; preds = %7
  %12 = load i64, ptr %5, align 8, !tbaa !4
  store i16 0, ptr %8, align 2, !tbaa !201
  %13 = call zeroext i1 @je_tcache_bin_ncached_max_read(ptr noundef %0, i64 noundef %12, ptr noundef nonnull %8) #15
  br i1 %13, label %23, label %14

14:                                               ; preds = %11
  %15 = load i16, ptr %8, align 2, !tbaa !201
  %16 = zext i16 %15 to i64
  store i64 %16, ptr %9, align 8, !tbaa !4
  %17 = icmp ne ptr %3, null
  %18 = icmp ne ptr %4, null
  %or.cond = and i1 %17, %18
  br i1 %or.cond, label %19, label %23

19:                                               ; preds = %14
  %20 = load i64, ptr %4, align 8, !tbaa !4
  %.not26 = icmp eq i64 %20, 8
  br i1 %.not26, label %22, label %21

21:                                               ; preds = %19
  %spec.select = call i64 @llvm.umin.i64(i64 %20, i64 8)
  call void @llvm.memcpy.p0.p0.i64(ptr nonnull align 1 %3, ptr nonnull align 8 %9, i64 %spec.select, i1 false)
  store i64 %spec.select, ptr %4, align 8, !tbaa !4
  br label %23

22:                                               ; preds = %19
  store i64 %16, ptr %3, align 8, !tbaa !4
  br label %23

23:                                               ; preds = %21, %7, %11, %22, %14
  %.021 = phi i32 [ 22, %21 ], [ 22, %7 ], [ 22, %11 ], [ 0, %22 ], [ 0, %14 ]
  ret i32 %.021
}